target datalayout = "e-m:e-p270:32:32-p271:32:32-p272:64:64-i64:64-i128:128-f80:128-n8:16:32:64-S128"
target triple = "x86_64-unknown-linux-gnu"

%struct.VirtIODevice = type { %struct.DeviceState, ptr, i8, i8, i16, i64, i64, i64, i64, ptr, i16, i32, i32, ptr, %struct.MemoryListener, i16, i8, i8, i8, i8, i8, i8, i8, i8, i8, ptr, ptr, i8, i8, ptr, ptr, %union.anon.1, %struct.EventNotifier, i8 }
%struct.DeviceState = type { %struct.Object, ptr, ptr, i8, i8, i64, ptr, i32, i8, ptr, %struct.NamedGPIOListHead, %struct.NamedClockListHead, %struct.BusStateHead, i32, i32, i32, %struct.ResettableState, ptr, %struct.MemReentrancyGuard }
%struct.Object = type { ptr, ptr, ptr, i32, ptr }
%struct.NamedGPIOListHead = type { ptr }
%struct.NamedClockListHead = type { ptr }
%struct.BusStateHead = type { ptr }
%struct.ResettableState = type { i32, i8, i8 }
%struct.MemReentrancyGuard = type { i8 }
%struct.MemoryListener = type { ptr, ptr, ptr, ptr, ptr, ptr, ptr, ptr, ptr, ptr, ptr, ptr, ptr, ptr, ptr, ptr, ptr, i32, ptr, ptr, %union.anon, %union.anon.0 }
%union.anon = type { %struct.QTailQLink }
%struct.QTailQLink = type { ptr, ptr }
%union.anon.0 = type { %struct.QTailQLink }
%union.anon.1 = type { %struct.QTailQLink }
%struct.EventNotifier = type { i32, i32, i8 }
%struct.VirtQueue = type { %struct.VRing, ptr, i16, i8, i16, i8, i16, i8, i16, i8, i8, i16, i32, i16, ptr, ptr, %struct.EventNotifier, %struct.EventNotifier, i8, %struct.anon }
%struct.VRing = type { i32, i32, i32, i64, i64, i64, ptr }
%struct.anon = type { ptr, ptr }
%struct.VRingMemoryRegionCaches = type { %struct.rcu_head, %struct.MemoryRegionCache, %struct.MemoryRegionCache, %struct.MemoryRegionCache }
%struct.rcu_head = type { ptr, ptr }
%struct.MemoryRegionCache = type { ptr, i64, i64, ptr, %struct.MemoryRegionSection, i8 }
%struct.MemoryRegionSection = type { i128, ptr, ptr, i64, i64, i8, i8, i8 }
%struct.anon.2 = type { ptr }

@.str.42 = private unnamed_addr constant [27 x i8] c"../qemu/hw/virtio/virtio.c\00", align 1
@__func__.virtio_virtqueue_reset_region_cache = private unnamed_addr constant [36 x i8] c"virtio_virtqueue_reset_region_cache\00", align 1

; Function Attrs: nounwind sspstrong uwtable
define internal void @virtio_virtqueue_reset_region_cache(ptr noundef %vq) #0 {
entry:
  %vq.addr = alloca ptr, align 8
  %caches = alloca ptr, align 8
  %tmp = alloca ptr, align 8
  %atomic-temp = alloca ptr, align 8
  %.atomictmp = alloca ptr, align 8
  %func_type_invalid = alloca i8, align 1
  %tmp11 = alloca ptr, align 8
  store ptr %vq, ptr %vq.addr, align 8
  br label %while.cond

while.cond:                                       ; preds = %do.end, %entry
  br i1 false, label %while.body, label %while.end

while.body:                                       ; preds = %while.cond
  br label %do.body

do.body:                                          ; preds = %while.body
  call void @g_assertion_message_expr(ptr noundef null, ptr noundef @.str.42, i32 noundef 221, ptr noundef @__func__.virtio_virtqueue_reset_region_cache, ptr noundef null) #12
  unreachable

do.end:                                           ; No predecessors!
  br label %while.cond

while.end:                                        ; preds = %while.cond
  %0 = load ptr, ptr %vq.addr, align 8
  %vring = getelementptr inbounds %struct.VirtQueue, ptr %0, i32 0, i32 0
  %caches1 = getelementptr inbounds %struct.VRing, ptr %vring, i32 0, i32 6
  %1 = load atomic i64, ptr %caches1 monotonic, align 8
  store i64 %1, ptr %atomic-temp, align 8
  %2 = load ptr, ptr %atomic-temp, align 8
  store ptr %2, ptr %tmp, align 8
  %3 = load ptr, ptr %tmp, align 8
  store ptr %3, ptr %caches, align 8
  br label %do.body2

do.body2:                                         ; preds = %while.end
  br label %while.cond3

while.cond3:                                      ; preds = %do.end6, %do.body2
  br i1 false, label %while.body4, label %while.end7

while.body4:                                      ; preds = %while.cond3
  br label %do.body5

do.body5:                                         ; preds = %while.body4
  call void @g_assertion_message_expr(ptr noundef null, ptr noundef @.str.42, i32 noundef 222, ptr noundef @__func__.virtio_virtqueue_reset_region_cache, ptr noundef null) #12
  unreachable

do.end6:                                          ; No predecessors!
  br label %while.cond3

while.end7:                                       ; preds = %while.cond3
  %4 = load ptr, ptr %vq.addr, align 8
  %vring8 = getelementptr inbounds %struct.VirtQueue, ptr %4, i32 0, i32 0
  %caches9 = getelementptr inbounds %struct.VRing, ptr %vring8, i32 0, i32 6
  store ptr null, ptr %.atomictmp, align 8
  %5 = load i64, ptr %.atomictmp, align 8
  store atomic i64 %5, ptr %caches9 release, align 8
  br label %do.end10

do.end10:                                         ; preds = %while.end7
  %6 = load ptr, ptr %caches, align 8
  %tobool = icmp ne ptr %6, null
  br i1 %tobool, label %if.then, label %if.end

if.then:                                          ; preds = %do.end10
  %7 = ptrtoint ptr @virtio_free_region_cache to i64
  %8 = ptrtoint ptr @virtio_free_region_cache to i64
  %9 = sub i64 %7, %8
  %10 = trunc i64 %9 to i8
  store i8 %10, ptr %func_type_invalid, align 1
  %11 = load ptr, ptr %caches, align 8
  %rcu = getelementptr inbounds %struct.VRingMemoryRegionCaches, ptr %11, i32 0, i32 0
  store ptr %rcu, ptr %tmp11, align 8
  %12 = load ptr, ptr %tmp11, align 8
  call void @call_rcu1(ptr noundef %12, ptr noundef @virtio_free_region_cache)
  br label %if.end

if.end:                                           ; preds = %if.then, %do.end10
  ret void
}

; Function Attrs: nounwind sspstrong uwtable
define dso_local void @virtio_queue_set_vector(ptr noundef %vdev, i32 noundef %n, i16 noundef zeroext %vector) #0 {
entry:
  %vdev.addr = alloca ptr, align 8
  %n.addr = alloca i32, align 4
  %vector.addr = alloca i16, align 2
  %vq = alloca ptr, align 8
  store ptr %vdev, ptr %vdev.addr, align 8
  store i32 %n, ptr %n.addr, align 4
  store i16 %vector, ptr %vector.addr, align 2
  %0 = load ptr, ptr %vdev.addr, align 8
  %vq1 = getelementptr inbounds %struct.VirtIODevice, ptr %0, i32 0, i32 13
  %1 = load ptr, ptr %vq1, align 8
  %2 = load i32, ptr %n.addr, align 4
  %idxprom = sext i32 %2 to i64
  %arrayidx = getelementptr %struct.VirtQueue, ptr %1, i64 %idxprom
  store ptr %arrayidx, ptr %vq, align 8
  %3 = load i32, ptr %n.addr, align 4
  %cmp = icmp slt i32 %3, 1024
  br i1 %cmp, label %if.then, label %if.end67

if.then:                                          ; preds = %entry
  %4 = load ptr, ptr %vdev.addr, align 8
  %vector_queues = getelementptr inbounds %struct.VirtIODevice, ptr %4, i32 0, i32 30
  %5 = load ptr, ptr %vector_queues, align 8
  %tobool = icmp ne ptr %5, null
  br i1 %tobool, label %land.lhs.true, label %if.end25

land.lhs.true:                                    ; preds = %if.then
  %6 = load ptr, ptr %vdev.addr, align 8
  %vq2 = getelementptr inbounds %struct.VirtIODevice, ptr %6, i32 0, i32 13
  %7 = load ptr, ptr %vq2, align 8
  %8 = load i32, ptr %n.addr, align 4
  %idxprom3 = sext i32 %8 to i64
  %arrayidx4 = getelementptr %struct.VirtQueue, ptr %7, i64 %idxprom3
  %vector5 = getelementptr inbounds %struct.VirtQueue, ptr %arrayidx4, i32 0, i32 13
  %9 = load i16, ptr %vector5, align 8
  %conv = zext i16 %9 to i32
  %cmp6 = icmp ne i32 %conv, 65535
  br i1 %cmp6, label %if.then8, label %if.end25

if.then8:                                         ; preds = %land.lhs.true
  br label %do.body

do.body:                                          ; preds = %if.then8
  %10 = load ptr, ptr %vq, align 8
  %node = getelementptr inbounds %struct.VirtQueue, ptr %10, i32 0, i32 19
  %le_next = getelementptr inbounds %struct.anon, ptr %node, i32 0, i32 0
  %11 = load ptr, ptr %le_next, align 8
  %cmp9 = icmp ne ptr %11, null
  br i1 %cmp9, label %if.then11, label %if.end

if.then11:                                        ; preds = %do.body
  %12 = load ptr, ptr %vq, align 8
  %node12 = getelementptr inbounds %struct.VirtQueue, ptr %12, i32 0, i32 19
  %le_prev = getelementptr inbounds %struct.anon, ptr %node12, i32 0, i32 1
  %13 = load ptr, ptr %le_prev, align 8
  %14 = load ptr, ptr %vq, align 8
  %node13 = getelementptr inbounds %struct.VirtQueue, ptr %14, i32 0, i32 19
  %le_next14 = getelementptr inbounds %struct.anon, ptr %node13, i32 0, i32 0
  %15 = load ptr, ptr %le_next14, align 8
  %node15 = getelementptr inbounds %struct.VirtQueue, ptr %15, i32 0, i32 19
  %le_prev16 = getelementptr inbounds %struct.anon, ptr %node15, i32 0, i32 1
  store ptr %13, ptr %le_prev16, align 8
  br label %if.end

if.end:                                           ; preds = %if.then11, %do.body
  %16 = load ptr, ptr %vq, align 8
  %node17 = getelementptr inbounds %struct.VirtQueue, ptr %16, i32 0, i32 19
  %le_next18 = getelementptr inbounds %struct.anon, ptr %node17, i32 0, i32 0
  %17 = load ptr, ptr %le_next18, align 8
  %18 = load ptr, ptr %vq, align 8
  %node19 = getelementptr inbounds %struct.VirtQueue, ptr %18, i32 0, i32 19
  %le_prev20 = getelementptr inbounds %struct.anon, ptr %node19, i32 0, i32 1
  %19 = load ptr, ptr %le_prev20, align 8
  store ptr %17, ptr %19, align 8
  %20 = load ptr, ptr %vq, align 8
  %node21 = getelementptr inbounds %struct.VirtQueue, ptr %20, i32 0, i32 19
  %le_next22 = getelementptr inbounds %struct.anon, ptr %node21, i32 0, i32 0
  store ptr null, ptr %le_next22, align 8
  %21 = load ptr, ptr %vq, align 8
  %node23 = getelementptr inbounds %struct.VirtQueue, ptr %21, i32 0, i32 19
  %le_prev24 = getelementptr inbounds %struct.anon, ptr %node23, i32 0, i32 1
  store ptr null, ptr %le_prev24, align 8
  br label %do.end

do.end:                                           ; preds = %if.end
  br label %if.end25

if.end25:                                         ; preds = %do.end, %land.lhs.true, %if.then
  %22 = load i16, ptr %vector.addr, align 2
  %23 = load ptr, ptr %vdev.addr, align 8
  %vq26 = getelementptr inbounds %struct.VirtIODevice, ptr %23, i32 0, i32 13
  %24 = load ptr, ptr %vq26, align 8
  %25 = load i32, ptr %n.addr, align 4
  %idxprom27 = sext i32 %25 to i64
  %arrayidx28 = getelementptr %struct.VirtQueue, ptr %24, i64 %idxprom27
  %vector29 = getelementptr inbounds %struct.VirtQueue, ptr %arrayidx28, i32 0, i32 13
  store i16 %22, ptr %vector29, align 8
  %26 = load ptr, ptr %vdev.addr, align 8
  %vector_queues30 = getelementptr inbounds %struct.VirtIODevice, ptr %26, i32 0, i32 30
  %27 = load ptr, ptr %vector_queues30, align 8
  %tobool31 = icmp ne ptr %27, null
  br i1 %tobool31, label %land.lhs.true32, label %if.end66

land.lhs.true32:                                  ; preds = %if.end25
  %28 = load i16, ptr %vector.addr, align 2
  %conv33 = zext i16 %28 to i32
  %cmp34 = icmp ne i32 %conv33, 65535
  br i1 %cmp34, label %if.then36, label %if.end66

if.then36:                                        ; preds = %land.lhs.true32
  br label %do.body37

do.body37:                                        ; preds = %if.then36
  %29 = load ptr, ptr %vdev.addr, align 8
  %vector_queues38 = getelementptr inbounds %struct.VirtIODevice, ptr %29, i32 0, i32 30
  %30 = load ptr, ptr %vector_queues38, align 8
  %31 = load i16, ptr %vector.addr, align 2
  %idxprom39 = zext i16 %31 to i64
  %arrayidx40 = getelementptr %struct.anon.2, ptr %30, i64 %idxprom39
  %lh_first = getelementptr inbounds %struct.anon.2, ptr %arrayidx40, i32 0, i32 0
  %32 = load ptr, ptr %lh_first, align 8
  %33 = load ptr, ptr %vq, align 8
  %node41 = getelementptr inbounds %struct.VirtQueue, ptr %33, i32 0, i32 19
  %le_next42 = getelementptr inbounds %struct.anon, ptr %node41, i32 0, i32 0
  store ptr %32, ptr %le_next42, align 8
  %cmp43 = icmp ne ptr %32, null
  br i1 %cmp43, label %if.then45, label %if.end54

if.then45:                                        ; preds = %do.body37
  %34 = load ptr, ptr %vq, align 8
  %node46 = getelementptr inbounds %struct.VirtQueue, ptr %34, i32 0, i32 19
  %le_next47 = getelementptr inbounds %struct.anon, ptr %node46, i32 0, i32 0
  %35 = load ptr, ptr %vdev.addr, align 8
  %vector_queues48 = getelementptr inbounds %struct.VirtIODevice, ptr %35, i32 0, i32 30
  %36 = load ptr, ptr %vector_queues48, align 8
  %37 = load i16, ptr %vector.addr, align 2
  %idxprom49 = zext i16 %37 to i64
  %arrayidx50 = getelementptr %struct.anon.2, ptr %36, i64 %idxprom49
  %lh_first51 = getelementptr inbounds %struct.anon.2, ptr %arrayidx50, i32 0, i32 0
  %38 = load ptr, ptr %lh_first51, align 8
  %node52 = getelementptr inbounds %struct.VirtQueue, ptr %38, i32 0, i32 19
  %le_prev53 = getelementptr inbounds %struct.anon, ptr %node52, i32 0, i32 1
  store ptr %le_next47, ptr %le_prev53, align 8
  br label %if.end54

if.end54:                                         ; preds = %if.then45, %do.body37
  %39 = load ptr, ptr %vq, align 8
  %40 = load ptr, ptr %vdev.addr, align 8
  %vector_queues55 = getelementptr inbounds %struct.VirtIODevice, ptr %40, i32 0, i32 30
  %41 = load ptr, ptr %vector_queues55, align 8
  %42 = load i16, ptr %vector.addr, align 2
  %idxprom56 = zext i16 %42 to i64
  %arrayidx57 = getelementptr %struct.anon.2, ptr %41, i64 %idxprom56
  %lh_first58 = getelementptr inbounds %struct.anon.2, ptr %arrayidx57, i32 0, i32 0
  store ptr %39, ptr %lh_first58, align 8
  %43 = load ptr, ptr %vdev.addr, align 8
  %vector_queues59 = getelementptr inbounds %struct.VirtIODevice, ptr %43, i32 0, i32 30
  %44 = load ptr, ptr %vector_queues59, align 8
  %45 = load i16, ptr %vector.addr, align 2
  %idxprom60 = zext i16 %45 to i64
  %arrayidx61 = getelementptr %struct.anon.2, ptr %44, i64 %idxprom60
  %lh_first62 = getelementptr inbounds %struct.anon.2, ptr %arrayidx61, i32 0, i32 0
  %46 = load ptr, ptr %vq, align 8
  %node63 = getelementptr inbounds %struct.VirtQueue, ptr %46, i32 0, i32 19
  %le_prev64 = getelementptr inbounds %struct.anon, ptr %node63, i32 0, i32 1
  store ptr %lh_first62, ptr %le_prev64, align 8
  br label %do.end65

do.end65:                                         ; preds = %if.end54
  br label %if.end66

if.end66:                                         ; preds = %do.end65, %land.lhs.true32, %if.end25
  br label %if.end67

if.end67:                                         ; preds = %if.end66, %entry
  ret void
}

; Function Attrs: nounwind sspstrong uwtable
define internal void @__virtio_queue_reset(ptr noundef %vdev, i32 noundef %i) #0 {
entry:
  %vdev.addr = alloca ptr, align 8
  %i.addr = alloca i32, align 4
  store ptr %vdev, ptr %vdev.addr, align 8
  store i32 %i, ptr %i.addr, align 4
  %0 = load ptr, ptr %vdev.addr, align 8
  %vq = getelementptr inbounds %struct.VirtIODevice, ptr %0, i32 0, i32 13
  %1 = load ptr, ptr %vq, align 8
  %2 = load i32, ptr %i.addr, align 4
  %idxprom = zext i32 %2 to i64
  %arrayidx = getelementptr %struct.VirtQueue, ptr %1, i64 %idxprom
  %vring = getelementptr inbounds %struct.VirtQueue, ptr %arrayidx, i32 0, i32 0
  %desc = getelementptr inbounds %struct.VRing, ptr %vring, i32 0, i32 3
  store i64 0, ptr %desc, align 8
  %3 = load ptr, ptr %vdev.addr, align 8
  %vq1 = getelementptr inbounds %struct.VirtIODevice, ptr %3, i32 0, i32 13
  %4 = load ptr, ptr %vq1, align 8
  %5 = load i32, ptr %i.addr, align 4
  %idxprom2 = zext i32 %5 to i64
  %arrayidx3 = getelementptr %struct.VirtQueue, ptr %4, i64 %idxprom2
  %vring4 = getelementptr inbounds %struct.VirtQueue, ptr %arrayidx3, i32 0, i32 0
  %avail = getelementptr inbounds %struct.VRing, ptr %vring4, i32 0, i32 4
  store i64 0, ptr %avail, align 8
  %6 = load ptr, ptr %vdev.addr, align 8
  %vq5 = getelementptr inbounds %struct.VirtIODevice, ptr %6, i32 0, i32 13
  %7 = load ptr, ptr %vq5, align 8
  %8 = load i32, ptr %i.addr, align 4
  %idxprom6 = zext i32 %8 to i64
  %arrayidx7 = getelementptr %struct.VirtQueue, ptr %7, i64 %idxprom6
  %vring8 = getelementptr inbounds %struct.VirtQueue, ptr %arrayidx7, i32 0, i32 0
  %used = getelementptr inbounds %struct.VRing, ptr %vring8, i32 0, i32 5
  store i64 0, ptr %used, align 8
  %9 = load ptr, ptr %vdev.addr, align 8
  %vq9 = getelementptr inbounds %struct.VirtIODevice, ptr %9, i32 0, i32 13
  %10 = load ptr, ptr %vq9, align 8
  %11 = load i32, ptr %i.addr, align 4
  %idxprom10 = zext i32 %11 to i64
  %arrayidx11 = getelementptr %struct.VirtQueue, ptr %10, i64 %idxprom10
  %last_avail_idx = getelementptr inbounds %struct.VirtQueue, ptr %arrayidx11, i32 0, i32 2
  store i16 0, ptr %last_avail_idx, align 8
  %12 = load ptr, ptr %vdev.addr, align 8
  %vq12 = getelementptr inbounds %struct.VirtIODevice, ptr %12, i32 0, i32 13
  %13 = load ptr, ptr %vq12, align 8
  %14 = load i32, ptr %i.addr, align 4
  %idxprom13 = zext i32 %14 to i64
  %arrayidx14 = getelementptr %struct.VirtQueue, ptr %13, i64 %idxprom13
  %shadow_avail_idx = getelementptr inbounds %struct.VirtQueue, ptr %arrayidx14, i32 0, i32 4
  store i16 0, ptr %shadow_avail_idx, align 4
  %15 = load ptr, ptr %vdev.addr, align 8
  %vq15 = getelementptr inbounds %struct.VirtIODevice, ptr %15, i32 0, i32 13
  %16 = load ptr, ptr %vq15, align 8
  %17 = load i32, ptr %i.addr, align 4
  %idxprom16 = zext i32 %17 to i64
  %arrayidx17 = getelementptr %struct.VirtQueue, ptr %16, i64 %idxprom16
  %used_idx = getelementptr inbounds %struct.VirtQueue, ptr %arrayidx17, i32 0, i32 6
  store i16 0, ptr %used_idx, align 8
  %18 = load ptr, ptr %vdev.addr, align 8
  %vq18 = getelementptr inbounds %struct.VirtIODevice, ptr %18, i32 0, i32 13
  %19 = load ptr, ptr %vq18, align 8
  %20 = load i32, ptr %i.addr, align 4
  %idxprom19 = zext i32 %20 to i64
  %arrayidx20 = getelementptr %struct.VirtQueue, ptr %19, i64 %idxprom19
  %last_avail_wrap_counter = getelementptr inbounds %struct.VirtQueue, ptr %arrayidx20, i32 0, i32 3
  store i8 1, ptr %last_avail_wrap_counter, align 2
  %21 = load ptr, ptr %vdev.addr, align 8
  %vq21 = getelementptr inbounds %struct.VirtIODevice, ptr %21, i32 0, i32 13
  %22 = load ptr, ptr %vq21, align 8
  %23 = load i32, ptr %i.addr, align 4
  %idxprom22 = zext i32 %23 to i64
  %arrayidx23 = getelementptr %struct.VirtQueue, ptr %22, i64 %idxprom22
  %shadow_avail_wrap_counter = getelementptr inbounds %struct.VirtQueue, ptr %arrayidx23, i32 0, i32 5
  store i8 1, ptr %shadow_avail_wrap_counter, align 2
  %24 = load ptr, ptr %vdev.addr, align 8
  %vq24 = getelementptr inbounds %struct.VirtIODevice, ptr %24, i32 0, i32 13
  %25 = load ptr, ptr %vq24, align 8
  %26 = load i32, ptr %i.addr, align 4
  %idxprom25 = zext i32 %26 to i64
  %arrayidx26 = getelementptr %struct.VirtQueue, ptr %25, i64 %idxprom25
  %used_wrap_counter = getelementptr inbounds %struct.VirtQueue, ptr %arrayidx26, i32 0, i32 7
  store i8 1, ptr %used_wrap_counter, align 2
  %27 = load ptr, ptr %vdev.addr, align 8
  %28 = load i32, ptr %i.addr, align 4
  call void @virtio_queue_set_vector(ptr noundef %27, i32 noundef %28, i16 noundef zeroext -1)
  %29 = load ptr, ptr %vdev.addr, align 8
  %vq27 = getelementptr inbounds %struct.VirtIODevice, ptr %29, i32 0, i32 13
  %30 = load ptr, ptr %vq27, align 8
  %31 = load i32, ptr %i.addr, align 4
  %idxprom28 = zext i32 %31 to i64
  %arrayidx29 = getelementptr %struct.VirtQueue, ptr %30, i64 %idxprom28
  %signalled_used = getelementptr inbounds %struct.VirtQueue, ptr %arrayidx29, i32 0, i32 8
  store i16 0, ptr %signalled_used, align 4
  %32 = load ptr, ptr %vdev.addr, align 8
  %vq30 = getelementptr inbounds %struct.VirtIODevice, ptr %32, i32 0, i32 13
  %33 = load ptr, ptr %vq30, align 8
  %34 = load i32, ptr %i.addr, align 4
  %idxprom31 = zext i32 %34 to i64
  %arrayidx32 = getelementptr %struct.VirtQueue, ptr %33, i64 %idxprom31
  %signalled_used_valid = getelementptr inbounds %struct.VirtQueue, ptr %arrayidx32, i32 0, i32 9
  store i8 0, ptr %signalled_used_valid, align 2
  %35 = load ptr, ptr %vdev.addr, align 8
  %vq33 = getelementptr inbounds %struct.VirtIODevice, ptr %35, i32 0, i32 13
  %36 = load ptr, ptr %vq33, align 8
  %37 = load i32, ptr %i.addr, align 4
  %idxprom34 = zext i32 %37 to i64
  %arrayidx35 = getelementptr %struct.VirtQueue, ptr %36, i64 %idxprom34
  %notification = getelementptr inbounds %struct.VirtQueue, ptr %arrayidx35, i32 0, i32 10
  store i8 1, ptr %notification, align 1
  %38 = load ptr, ptr %vdev.addr, align 8
  %vq36 = getelementptr inbounds %struct.VirtIODevice, ptr %38, i32 0, i32 13
  %39 = load ptr, ptr %vq36, align 8
  %40 = load i32, ptr %i.addr, align 4
  %idxprom37 = zext i32 %40 to i64
  %arrayidx38 = getelementptr %struct.VirtQueue, ptr %39, i64 %idxprom37
  %vring39 = getelementptr inbounds %struct.VirtQueue, ptr %arrayidx38, i32 0, i32 0
  %num_default = getelementptr inbounds %struct.VRing, ptr %vring39, i32 0, i32 1
  %41 = load i32, ptr %num_default, align 4
  %42 = load ptr, ptr %vdev.addr, align 8
  %vq40 = getelementptr inbounds %struct.VirtIODevice, ptr %42, i32 0, i32 13
  %43 = load ptr, ptr %vq40, align 8
  %44 = load i32, ptr %i.addr, align 4
  %idxprom41 = zext i32 %44 to i64
  %arrayidx42 = getelementptr %struct.VirtQueue, ptr %43, i64 %idxprom41
  %vring43 = getelementptr inbounds %struct.VirtQueue, ptr %arrayidx42, i32 0, i32 0
  %num = getelementptr inbounds %struct.VRing, ptr %vring43, i32 0, i32 0
  store i32 %41, ptr %num, align 8
  %45 = load ptr, ptr %vdev.addr, align 8
  %vq44 = getelementptr inbounds %struct.VirtIODevice, ptr %45, i32 0, i32 13
  %46 = load ptr, ptr %vq44, align 8
  %47 = load i32, ptr %i.addr, align 4
  %idxprom45 = zext i32 %47 to i64
  %arrayidx46 = getelementptr %struct.VirtQueue, ptr %46, i64 %idxprom45
  %inuse = getelementptr inbounds %struct.VirtQueue, ptr %arrayidx46, i32 0, i32 12
  store i32 0, ptr %inuse, align 4
  %48 = load ptr, ptr %vdev.addr, align 8
  %vq47 = getelementptr inbounds %struct.VirtIODevice, ptr %48, i32 0, i32 13
  %49 = load ptr, ptr %vq47, align 8
  %50 = load i32, ptr %i.addr, align 4
  %idxprom48 = zext i32 %50 to i64
  %arrayidx49 = getelementptr %struct.VirtQueue, ptr %49, i64 %idxprom48
  call void @virtio_virtqueue_reset_region_cache(ptr noundef %arrayidx49)
  ret void
}