; Function Attrs: nounwind sspstrong uwtable
define internal fastcc void @__virtio_queue_reset(ptr noundef readonly captures(none) %vdev, i32 noundef %i) unnamed_addr #0 {
entry:
  %vq = getelementptr inbounds nuw i8, ptr %vdev, i64 232
  %0 = load ptr, ptr %vq, align 8
  %idxprom = zext i32 %i to i64
  %desc = getelementptr %struct.VirtQueue, ptr %0, i64 %idxprom, i32 0, i32 3
  store i64 0, ptr %desc, align 8
  %1 = load ptr, ptr %vq, align 8
  %avail = getelementptr %struct.VirtQueue, ptr %1, i64 %idxprom, i32 0, i32 4
  store i64 0, ptr %avail, align 8
  %2 = load ptr, ptr %vq, align 8
  %used = getelementptr %struct.VirtQueue, ptr %2, i64 %idxprom, i32 0, i32 5
  store i64 0, ptr %used, align 8
  %3 = load ptr, ptr %vq, align 8
  %last_avail_idx = getelementptr %struct.VirtQueue, ptr %3, i64 %idxprom, i32 2
  store i16 0, ptr %last_avail_idx, align 8
  %4 = load ptr, ptr %vq, align 8
  %shadow_avail_idx = getelementptr %struct.VirtQueue, ptr %4, i64 %idxprom, i32 4
  store i16 0, ptr %shadow_avail_idx, align 4
  %5 = load ptr, ptr %vq, align 8
  %used_idx = getelementptr %struct.VirtQueue, ptr %5, i64 %idxprom, i32 6
  store i16 0, ptr %used_idx, align 8
  %6 = load ptr, ptr %vq, align 8
  %last_avail_wrap_counter = getelementptr %struct.VirtQueue, ptr %6, i64 %idxprom, i32 3
  store i8 1, ptr %last_avail_wrap_counter, align 2
  %7 = load ptr, ptr %vq, align 8
  %shadow_avail_wrap_counter = getelementptr %struct.VirtQueue, ptr %7, i64 %idxprom, i32 5
  store i8 1, ptr %shadow_avail_wrap_counter, align 2
  %8 = load ptr, ptr %vq, align 8
  %used_wrap_counter = getelementptr %struct.VirtQueue, ptr %8, i64 %idxprom, i32 7
  store i8 1, ptr %used_wrap_counter, align 2
  %9 = load ptr, ptr %vq, align 8
  %idxprom.i = sext i32 %i to i64
  %arrayidx.i = getelementptr %struct.VirtQueue, ptr %9, i64 %idxprom.i
  %cmp.i = icmp slt i32 %i, 1024
  br i1 %cmp.i, label %if.then.i, label %virtio_queue_set_vector.exit

if.then.i:                                        ; preds = %entry
  %vector_queues.i = getelementptr inbounds nuw i8, ptr %vdev, i64 480
  %10 = load ptr, ptr %vector_queues.i, align 8
  %tobool.not.i = icmp eq ptr %10, null
  br i1 %tobool.not.i, label %if.end25.i, label %land.lhs.true.i

land.lhs.true.i:                                  ; preds = %if.then.i
  %vector5.i = getelementptr inbounds nuw i8, ptr %arrayidx.i, i64 80
  %11 = load i16, ptr %vector5.i, align 8
  %cmp6.not.i = icmp eq i16 %11, -1
  br i1 %cmp6.not.i, label %if.end25.i, label %do.body.i

do.body.i:                                        ; preds = %land.lhs.true.i
  %node.i = getelementptr inbounds nuw i8, ptr %arrayidx.i, i64 136
  %12 = load ptr, ptr %node.i, align 8
  %cmp9.not.i = icmp eq ptr %12, null
  %le_prev20.phi.trans.insert.i = getelementptr inbounds nuw i8, ptr %arrayidx.i, i64 144
  %.pre28.i = load ptr, ptr %le_prev20.phi.trans.insert.i, align 8
  br i1 %cmp9.not.i, label %if.end.i, label %if.then11.i

if.then11.i:                                      ; preds = %do.body.i
  %le_prev16.i = getelementptr inbounds nuw i8, ptr %12, i64 144
  store ptr %.pre28.i, ptr %le_prev16.i, align 8
  %.pre.i = load ptr, ptr %node.i, align 8
  br label %if.end.i

if.end.i:                                         ; preds = %if.then11.i, %do.body.i
  %13 = phi ptr [ %.pre.i, %if.then11.i ], [ null, %do.body.i ]
  store ptr %13, ptr %.pre28.i, align 8
  tail call void @llvm.memset.p0.i64(ptr noundef nonnull align 8 dereferenceable(16) %node.i, i8 0, i64 16, i1 false)
  %.pre29.i = load ptr, ptr %vq, align 8
  br label %if.end25.i

if.end25.i:                                       ; preds = %if.end.i, %land.lhs.true.i, %if.then.i
  %14 = phi ptr [ %.pre29.i, %if.end.i ], [ %9, %land.lhs.true.i ], [ %9, %if.then.i ]
  %vector29.i = getelementptr %struct.VirtQueue, ptr %14, i64 %idxprom.i, i32 13
  store i16 -1, ptr %vector29.i, align 8
  %.pre = load ptr, ptr %vq, align 8
  br label %virtio_queue_set_vector.exit

virtio_queue_set_vector.exit:                     ; preds = %entry, %if.end25.i
  %15 = phi ptr [ %9, %entry ], [ %.pre, %if.end25.i ]
  %signalled_used = getelementptr %struct.VirtQueue, ptr %15, i64 %idxprom, i32 8
  store i16 0, ptr %signalled_used, align 4
  %16 = load ptr, ptr %vq, align 8
  %signalled_used_valid = getelementptr %struct.VirtQueue, ptr %16, i64 %idxprom, i32 9
  store i8 0, ptr %signalled_used_valid, align 2
  %17 = load ptr, ptr %vq, align 8
  %notification = getelementptr %struct.VirtQueue, ptr %17, i64 %idxprom, i32 10
  store i8 1, ptr %notification, align 1
  %18 = load ptr, ptr %vq, align 8
  %arrayidx38 = getelementptr %struct.VirtQueue, ptr %18, i64 %idxprom
  %num_default = getelementptr inbounds nuw i8, ptr %arrayidx38, i64 4
  %19 = load i32, ptr %num_default, align 4
  store i32 %19, ptr %arrayidx38, align 8
  %20 = load ptr, ptr %vq, align 8
  %inuse = getelementptr %struct.VirtQueue, ptr %20, i64 %idxprom, i32 12
  store i32 0, ptr %inuse, align 4
  %21 = load ptr, ptr %vq, align 8
  %caches1.i = getelementptr %struct.VirtQueue, ptr %21, i64 %idxprom, i32 0, i32 6
  %22 = load atomic i64, ptr %caches1.i monotonic, align 8
  store atomic i64 0, ptr %caches1.i release, align 8
  %tobool.not.i33 = icmp eq i64 %22, 0
  br i1 %tobool.not.i33, label %virtio_virtqueue_reset_region_cache.exit, label %if.then.i34

if.then.i34:                                      ; preds = %virtio_queue_set_vector.exit
  %23 = inttoptr i64 %22 to ptr
  tail call void @call_rcu1(ptr noundef nonnull %23, ptr noundef nonnull @virtio_free_region_cache) #23
  br label %virtio_virtqueue_reset_region_cache.exit

virtio_virtqueue_reset_region_cache.exit:         ; preds = %virtio_queue_set_vector.exit, %if.then.i34
  ret void
}